; Function Attrs: nounwind uwtable
define hidden range(i32 -4, 1) i32 @ma_log_postf(ptr noundef %0, i32 noundef %1, ptr noundef captures(address_is_null) %2, ...) local_unnamed_addr #7 {
  %4 = alloca [1 x %struct.__va_list_tag], align 16
  call void @llvm.lifetime.start.p0(i64 24, ptr nonnull %4) #72
  %5 = icmp eq ptr %0, null
  %6 = icmp eq ptr %2, null
  %or.cond = or i1 %5, %6
  br i1 %or.cond, label %9, label %7

7:                                                ; preds = %3
  call void @llvm.va_start.p0(ptr nonnull %4)
  %8 = call i32 @ma_log_postv(ptr noundef nonnull %0, i32 noundef %1, ptr noundef nonnull %2, ptr noundef nonnull %4)
  call void @llvm.va_end.p0(ptr nonnull %4)
  br label %9

9:                                                ; preds = %3, %7
  %.0 = phi i32 [ %8, %7 ], [ -2, %3 ]
  call void @llvm.lifetime.end.p0(i64 24, ptr nonnull %4) #72
  ret i32 %.0
}